target datalayout = "e-m:e-p270:32:32-p271:32:32-p272:64:64-i64:64-i128:128-f80:128-n8:16:32:64-S128"
target triple = "x86_64-pc-linux-gnu"

%struct.rocksdb_t = type { ptr }
%struct.rocksdb_transactiondb_t = type { ptr }

; Function Attrs: mustprogress uwtable
define ptr @rocksdb_transactiondb_get_base_db(ptr noundef %0) #0 {
  %2 = alloca ptr, align 8
  %3 = alloca ptr, align 8
  %4 = alloca ptr, align 8
  %5 = alloca ptr, align 8
  %6 = alloca i32, align 4
  store ptr %0, ptr %3, align 8, !tbaa !1248
  call void @llvm.lifetime.start.p0(i64 8, ptr %4) #24
  %7 = load ptr, ptr %3, align 8, !tbaa !1248
  %8 = getelementptr inbounds nuw %struct.rocksdb_transactiondb_t, ptr %7, i32 0, i32 0
  %9 = load ptr, ptr %8, align 8, !tbaa !1250
  %10 = load ptr, ptr %9, align 8, !tbaa !129
  %11 = getelementptr inbounds ptr, ptr %10, i64 153
  %12 = load ptr, ptr %11, align 8
  %13 = call noundef ptr %12(ptr noundef nonnull align 8 dereferenceable(32) %9)
  store ptr %13, ptr %4, align 8, !tbaa !16
  %14 = load ptr, ptr %4, align 8, !tbaa !16
  %15 = icmp ne ptr %14, null
  br i1 %15, label %16, label %22

16:                                               ; preds = %1
  call void @llvm.lifetime.start.p0(i64 8, ptr %5) #24
  %17 = call noalias noundef nonnull ptr @_Znwm(i64 noundef 8) #25
  store ptr %17, ptr %5, align 8, !tbaa !14
  %18 = load ptr, ptr %4, align 8, !tbaa !16
  %19 = load ptr, ptr %5, align 8, !tbaa !14
  %20 = getelementptr inbounds nuw %struct.rocksdb_t, ptr %19, i32 0, i32 0
  store ptr %18, ptr %20, align 8, !tbaa !18
  %21 = load ptr, ptr %5, align 8, !tbaa !14
  store ptr %21, ptr %2, align 8
  store i32 1, ptr %6, align 4
  call void @llvm.lifetime.end.p0(i64 8, ptr %5) #24
  br label %23

22:                                               ; preds = %1
  store ptr null, ptr %2, align 8
  store i32 1, ptr %6, align 4
  br label %23

23:                                               ; preds = %22, %16
  call void @llvm.lifetime.end.p0(i64 8, ptr %4) #24
  %24 = load ptr, ptr %2, align 8
  ret ptr %24
}